; Function Attrs: mustprogress nofree norecurse nosync nounwind willreturn memory(none) uwtable
define internal noundef double @trc_smpte240M_inv(double noundef %0) #0 {
  %2 = fcmp nsz olt double %0, 0.000000e+00
  br i1 %2, label %11, label %3

3:                                                ; preds = %1
  %4 = fcmp nsz olt double %0, 9.120000e-02
  br i1 %4, label %5, label %7

5:                                                ; preds = %3
  %6 = fmul nsz double %0, 2.500000e-01
  br label %11

7:                                                ; preds = %3
  %8 = fadd nsz double %0, 0x3FBC8B4395810620
  %9 = fdiv nsz double %8, 1.111500e+00
  %10 = tail call nsz double @llvm.pow.f64(double %9, double 0x4001C71C71C71C72)
  br label %11

11:                                               ; preds = %5, %7, %1
  %12 = phi nsz double [ 0.000000e+00, %1 ], [ %6, %5 ], [ %10, %7 ]
  ret double %12
}